; ModuleID = '6/3018.c'
source_filename = "6/3018.c"
target datalayout = "e-m:e-p270:32:32-p271:32:32-p272:64:64-i64:64-f80:128-n8:16:32:64-S128"
target triple = "x86_64-pc-linux-gnu"

@.str = private unnamed_addr constant [3 x i8] c"%d\00", align 1
@.str.1 = private unnamed_addr constant [6 x i8] c"%d %d\00", align 1
@.str.2 = private unnamed_addr constant [4 x i8] c"%d\0A\00", align 1

; Function Attrs: noinline nounwind uwtable
define dso_local i32 @main() #0 {
  %1 = alloca i32, align 4
  %2 = alloca i32, align 4
  %3 = alloca [100 x [100 x i32]], align 16
  %4 = alloca i32, align 4
  %5 = alloca i32, align 4
  %6 = alloca i32, align 4
  %7 = alloca i32, align 4
  %8 = alloca i32, align 4
  %9 = alloca i32, align 4
  %10 = alloca i32, align 4
  %11 = alloca i32, align 4
  %12 = alloca i32, align 4
  %13 = alloca i32, align 4
  %14 = alloca i32, align 4
  store i32 0, i32* %1, align 4
  store i32 0, i32* %9, align 4
  store i32 0, i32* %10, align 4
  store i32 0, i32* %11, align 4
  store i32 0, i32* %12, align 4
  store i32 0, i32* %13, align 4
  %15 = call i32 (i8*, ...) @__isoc99_scanf(i8* getelementptr inbounds ([3 x i8], [3 x i8]* @.str, i64 0, i64 0), i32* %2)
  store i32 0, i32* %6, align 4
  br label %16

16:                                               ; preds = %142, %0
  %17 = load i32, i32* %6, align 4
  %18 = load i32, i32* %2, align 4
  %19 = icmp slt i32 %17, %18
  br i1 %19, label %20, label %145

20:                                               ; preds = %16
  store i32 0, i32* %14, align 4
  store i32 0, i32* %9, align 4
  store i32 0, i32* %10, align 4
  store i32 0, i32* %11, align 4
  store i32 0, i32* %12, align 4
  %21 = call i32 (i8*, ...) @__isoc99_scanf(i8* getelementptr inbounds ([6 x i8], [6 x i8]* @.str.1, i64 0, i64 0), i32* %5, i32* %4)
  store i32 0, i32* %7, align 4
  br label %22

22:                                               ; preds = %39, %20
  %23 = load i32, i32* %7, align 4
  %24 = load i32, i32* %4, align 4
  %25 = icmp slt i32 %23, %24
  br i1 %25, label %26, label %42

26:                                               ; preds = %22
  %27 = getelementptr inbounds [100 x [100 x i32]], [100 x [100 x i32]]* %3, i64 0, i64 0
  %28 = load i32, i32* %7, align 4
  %29 = sext i32 %28 to i64
  %30 = getelementptr inbounds [100 x i32], [100 x i32]* %27, i64 0, i64 %29
  %31 = call i32 (i8*, ...) @__isoc99_scanf(i8* getelementptr inbounds ([3 x i8], [3 x i8]* @.str, i64 0, i64 0), i32* %30)
  %32 = getelementptr inbounds [100 x [100 x i32]], [100 x [100 x i32]]* %3, i64 0, i64 0
  %33 = load i32, i32* %7, align 4
  %34 = sext i32 %33 to i64
  %35 = getelementptr inbounds [100 x i32], [100 x i32]* %32, i64 0, i64 %34
  %36 = load i32, i32* %35, align 4
  %37 = load i32, i32* %9, align 4
  %38 = add nsw i32 %37, %36
  store i32 %38, i32* %9, align 4
  br label %39

39:                                               ; preds = %26
  %40 = load i32, i32* %7, align 4
  %41 = add nsw i32 %40, 1
  store i32 %41, i32* %7, align 4
  br label %22

42:                                               ; preds = %22
  store i32 1, i32* %7, align 4
  br label %43

43:                                               ; preds = %65, %42
  %44 = load i32, i32* %7, align 4
  %45 = load i32, i32* %5, align 4
  %46 = sub nsw i32 %45, 1
  %47 = icmp slt i32 %44, %46
  br i1 %47, label %48, label %68

48:                                               ; preds = %43
  store i32 0, i32* %8, align 4
  br label %49

49:                                               ; preds = %61, %48
  %50 = load i32, i32* %8, align 4
  %51 = load i32, i32* %4, align 4
  %52 = icmp slt i32 %50, %51
  br i1 %52, label %53, label %64

53:                                               ; preds = %49
  %54 = load i32, i32* %7, align 4
  %55 = sext i32 %54 to i64
  %56 = getelementptr inbounds [100 x [100 x i32]], [100 x [100 x i32]]* %3, i64 0, i64 %55
  %57 = load i32, i32* %8, align 4
  %58 = sext i32 %57 to i64
  %59 = getelementptr inbounds [100 x i32], [100 x i32]* %56, i64 0, i64 %58
  %60 = call i32 (i8*, ...) @__isoc99_scanf(i8* getelementptr inbounds ([3 x i8], [3 x i8]* @.str, i64 0, i64 0), i32* %59)
  br label %61

61:                                               ; preds = %53
  %62 = load i32, i32* %8, align 4
  %63 = add nsw i32 %62, 1
  store i32 %63, i32* %8, align 4
  br label %49

64:                                               ; preds = %49
  br label %65

65:                                               ; preds = %64
  %66 = load i32, i32* %7, align 4
  %67 = add nsw i32 %66, 1
  store i32 %67, i32* %7, align 4
  br label %43

68:                                               ; preds = %43
  store i32 0, i32* %7, align 4
  br label %69

69:                                               ; preds = %92, %68
  %70 = load i32, i32* %7, align 4
  %71 = load i32, i32* %4, align 4
  %72 = icmp slt i32 %70, %71
  br i1 %72, label %73, label %95

73:                                               ; preds = %69
  %74 = load i32, i32* %5, align 4
  %75 = sub nsw i32 %74, 1
  %76 = sext i32 %75 to i64
  %77 = getelementptr inbounds [100 x [100 x i32]], [100 x [100 x i32]]* %3, i64 0, i64 %76
  %78 = load i32, i32* %7, align 4
  %79 = sext i32 %78 to i64
  %80 = getelementptr inbounds [100 x i32], [100 x i32]* %77, i64 0, i64 %79
  %81 = call i32 (i8*, ...) @__isoc99_scanf(i8* getelementptr inbounds ([3 x i8], [3 x i8]* @.str, i64 0, i64 0), i32* %80)
  %82 = load i32, i32* %5, align 4
  %83 = sub nsw i32 %82, 1
  %84 = sext i32 %83 to i64
  %85 = getelementptr inbounds [100 x [100 x i32]], [100 x [100 x i32]]* %3, i64 0, i64 %84
  %86 = load i32, i32* %7, align 4
  %87 = sext i32 %86 to i64
  %88 = getelementptr inbounds [100 x i32], [100 x i32]* %85, i64 0, i64 %87
  %89 = load i32, i32* %88, align 4
  %90 = load i32, i32* %10, align 4
  %91 = add nsw i32 %90, %89
  store i32 %91, i32* %10, align 4
  br label %92

92:                                               ; preds = %73
  %93 = load i32, i32* %7, align 4
  %94 = add nsw i32 %93, 1
  store i32 %94, i32* %7, align 4
  br label %69

95:                                               ; preds = %69
  store i32 1, i32* %7, align 4
  br label %96

96:                                               ; preds = %109, %95
  %97 = load i32, i32* %7, align 4
  %98 = load i32, i32* %5, align 4
  %99 = sub nsw i32 %98, 1
  %100 = icmp slt i32 %97, %99
  br i1 %100, label %101, label %112

101:                                              ; preds = %96
  %102 = load i32, i32* %7, align 4
  %103 = sext i32 %102 to i64
  %104 = getelementptr inbounds [100 x [100 x i32]], [100 x [100 x i32]]* %3, i64 0, i64 %103
  %105 = getelementptr inbounds [100 x i32], [100 x i32]* %104, i64 0, i64 0
  %106 = load i32, i32* %105, align 16
  %107 = load i32, i32* %11, align 4
  %108 = add nsw i32 %107, %106
  store i32 %108, i32* %11, align 4
  br label %109

109:                                              ; preds = %101
  %110 = load i32, i32* %7, align 4
  %111 = add nsw i32 %110, 1
  store i32 %111, i32* %7, align 4
  br label %96

112:                                              ; preds = %96
  store i32 1, i32* %7, align 4
  br label %113

113:                                              ; preds = %129, %112
  %114 = load i32, i32* %7, align 4
  %115 = load i32, i32* %5, align 4
  %116 = sub nsw i32 %115, 1
  %117 = icmp slt i32 %114, %116
  br i1 %117, label %118, label %132

118:                                              ; preds = %113
  %119 = load i32, i32* %7, align 4
  %120 = sext i32 %119 to i64
  %121 = getelementptr inbounds [100 x [100 x i32]], [100 x [100 x i32]]* %3, i64 0, i64 %120
  %122 = load i32, i32* %4, align 4
  %123 = sub nsw i32 %122, 1
  %124 = sext i32 %123 to i64
  %125 = getelementptr inbounds [100 x i32], [100 x i32]* %121, i64 0, i64 %124
  %126 = load i32, i32* %125, align 4
  %127 = load i32, i32* %12, align 4
  %128 = add nsw i32 %127, %126
  store i32 %128, i32* %12, align 4
  br label %129

129:                                              ; preds = %118
  %130 = load i32, i32* %7, align 4
  %131 = add nsw i32 %130, 1
  store i32 %131, i32* %7, align 4
  br label %113

132:                                              ; preds = %113
  %133 = load i32, i32* %9, align 4
  %134 = load i32, i32* %10, align 4
  %135 = add nsw i32 %133, %134
  %136 = load i32, i32* %11, align 4
  %137 = add nsw i32 %135, %136
  %138 = load i32, i32* %12, align 4
  %139 = add nsw i32 %137, %138
  store i32 %139, i32* %14, align 4
  %140 = load i32, i32* %14, align 4
  %141 = call i32 (i8*, ...) @printf(i8* getelementptr inbounds ([4 x i8], [4 x i8]* @.str.2, i64 0, i64 0), i32 %140)
  store i32 0, i32* %14, align 4
  br label %142

142:                                              ; preds = %132
  %143 = load i32, i32* %6, align 4
  %144 = add nsw i32 %143, 1
  store i32 %144, i32* %6, align 4
  br label %16

145:                                              ; preds = %16
  ret i32 0
}

declare dso_local i32 @__isoc99_scanf(i8*, ...) #1

declare dso_local i32 @printf(i8*, ...) #1


!llvm.module.flags = !{!0}
!llvm.ident = !{!1}

!0 = !{i32 1, !"wchar_size", i32 4}
!1 = !{!"clang version 10.0.0-4ubuntu1 "}
